
digitora stopper.elf:     file format elf32-avr

Sections:
Idx Name          Size      VMA       LMA       File off  Algn
  0 .data         00000046  00800100  00000b40  00000bd4  2**0
                  CONTENTS, ALLOC, LOAD, DATA
  1 .text         00000b40  00000000  00000000  00000094  2**1
                  CONTENTS, ALLOC, LOAD, READONLY, CODE
  2 .bss          00000018  00800146  00800146  00000c1a  2**0
                  ALLOC
  3 .comment      00000030  00000000  00000000  00000c1a  2**0
                  CONTENTS, READONLY
  4 .note.gnu.avr.deviceinfo 0000003c  00000000  00000000  00000c4c  2**2
                  CONTENTS, READONLY
  5 .debug_aranges 00000098  00000000  00000000  00000c88  2**0
                  CONTENTS, READONLY, DEBUGGING
  6 .debug_info   000014d1  00000000  00000000  00000d20  2**0
                  CONTENTS, READONLY, DEBUGGING
  7 .debug_abbrev 00000973  00000000  00000000  000021f1  2**0
                  CONTENTS, READONLY, DEBUGGING
  8 .debug_line   00000a76  00000000  00000000  00002b64  2**0
                  CONTENTS, READONLY, DEBUGGING
  9 .debug_frame  000001b8  00000000  00000000  000035dc  2**2
                  CONTENTS, READONLY, DEBUGGING
 10 .debug_str    00000514  00000000  00000000  00003794  2**0
                  CONTENTS, READONLY, DEBUGGING
 11 .debug_loc    000005ed  00000000  00000000  00003ca8  2**0
                  CONTENTS, READONLY, DEBUGGING
 12 .debug_ranges 000000b8  00000000  00000000  00004295  2**0
                  CONTENTS, READONLY, DEBUGGING

Disassembly of section .text:

00000000 <__vectors>:
   0:	4f c0       	rjmp	.+158    	; 0xa0 <__ctors_end>
   2:	00 00       	nop
   4:	6a c0       	rjmp	.+212    	; 0xda <__bad_interrupt>
   6:	00 00       	nop
   8:	68 c0       	rjmp	.+208    	; 0xda <__bad_interrupt>
   a:	00 00       	nop
   c:	66 c0       	rjmp	.+204    	; 0xda <__bad_interrupt>
   e:	00 00       	nop
  10:	64 c0       	rjmp	.+200    	; 0xda <__bad_interrupt>
  12:	00 00       	nop
  14:	62 c0       	rjmp	.+196    	; 0xda <__bad_interrupt>
  16:	00 00       	nop
  18:	60 c0       	rjmp	.+192    	; 0xda <__bad_interrupt>
  1a:	00 00       	nop
  1c:	5e c0       	rjmp	.+188    	; 0xda <__bad_interrupt>
  1e:	00 00       	nop
  20:	5c c0       	rjmp	.+184    	; 0xda <__bad_interrupt>
  22:	00 00       	nop
  24:	5a c0       	rjmp	.+180    	; 0xda <__bad_interrupt>
  26:	00 00       	nop
  28:	1b c5       	rjmp	.+2614   	; 0xa60 <__vector_10>
  2a:	00 00       	nop
  2c:	56 c0       	rjmp	.+172    	; 0xda <__bad_interrupt>
  2e:	00 00       	nop
  30:	54 c0       	rjmp	.+168    	; 0xda <__bad_interrupt>
  32:	00 00       	nop
  34:	52 c0       	rjmp	.+164    	; 0xda <__bad_interrupt>
  36:	00 00       	nop
  38:	50 c0       	rjmp	.+160    	; 0xda <__bad_interrupt>
  3a:	00 00       	nop
  3c:	4e c0       	rjmp	.+156    	; 0xda <__bad_interrupt>
  3e:	00 00       	nop
  40:	c3 c4       	rjmp	.+2438   	; 0x9c8 <__vector_16>
  42:	00 00       	nop
  44:	4a c0       	rjmp	.+148    	; 0xda <__bad_interrupt>
  46:	00 00       	nop
  48:	48 c0       	rjmp	.+144    	; 0xda <__bad_interrupt>
  4a:	00 00       	nop
  4c:	46 c0       	rjmp	.+140    	; 0xda <__bad_interrupt>
  4e:	00 00       	nop
  50:	44 c0       	rjmp	.+136    	; 0xda <__bad_interrupt>
  52:	00 00       	nop
  54:	42 c0       	rjmp	.+132    	; 0xda <__bad_interrupt>
  56:	00 00       	nop
  58:	40 c0       	rjmp	.+128    	; 0xda <__bad_interrupt>
  5a:	00 00       	nop
  5c:	3e c0       	rjmp	.+124    	; 0xda <__bad_interrupt>
  5e:	00 00       	nop
  60:	3c c0       	rjmp	.+120    	; 0xda <__bad_interrupt>
  62:	00 00       	nop
  64:	3a c0       	rjmp	.+116    	; 0xda <__bad_interrupt>
  66:	00 00       	nop
  68:	38 c0       	rjmp	.+112    	; 0xda <__bad_interrupt>
  6a:	00 00       	nop
  6c:	36 c0       	rjmp	.+108    	; 0xda <__bad_interrupt>
  6e:	00 00       	nop
  70:	34 c0       	rjmp	.+104    	; 0xda <__bad_interrupt>
  72:	00 00       	nop
  74:	32 c0       	rjmp	.+100    	; 0xda <__bad_interrupt>
  76:	00 00       	nop
  78:	30 c0       	rjmp	.+96     	; 0xda <__bad_interrupt>
  7a:	00 00       	nop
  7c:	2e c0       	rjmp	.+92     	; 0xda <__bad_interrupt>
  7e:	00 00       	nop
  80:	2c c0       	rjmp	.+88     	; 0xda <__bad_interrupt>
  82:	00 00       	nop
  84:	2a c0       	rjmp	.+84     	; 0xda <__bad_interrupt>
  86:	00 00       	nop
  88:	28 c0       	rjmp	.+80     	; 0xda <__bad_interrupt>
  8a:	00 00       	nop
  8c:	2e 03       	fmul	r18, r22
  8e:	33 03       	mulsu	r19, r19
  90:	3a 03       	fmul	r19, r18
  92:	41 03       	mulsu	r20, r17
  94:	48 03       	fmul	r20, r16
  96:	4f 03       	fmul	r20, r23
  98:	56 03       	mulsu	r21, r22
  9a:	5d 03       	fmul	r21, r21
  9c:	64 03       	mulsu	r22, r20
  9e:	6b 03       	fmul	r22, r19

000000a0 <__ctors_end>:
  a0:	11 24       	eor	r1, r1
  a2:	1f be       	out	0x3f, r1	; 63
  a4:	cf ef       	ldi	r28, 0xFF	; 255
  a6:	d0 e1       	ldi	r29, 0x10	; 16
  a8:	de bf       	out	0x3e, r29	; 62
  aa:	cd bf       	out	0x3d, r28	; 61

000000ac <__do_copy_data>:
  ac:	11 e0       	ldi	r17, 0x01	; 1
  ae:	a0 e0       	ldi	r26, 0x00	; 0
  b0:	b1 e0       	ldi	r27, 0x01	; 1
  b2:	e0 e4       	ldi	r30, 0x40	; 64
  b4:	fb e0       	ldi	r31, 0x0B	; 11
  b6:	00 e0       	ldi	r16, 0x00	; 0
  b8:	0b bf       	out	0x3b, r16	; 59
  ba:	02 c0       	rjmp	.+4      	; 0xc0 <__do_copy_data+0x14>
  bc:	07 90       	elpm	r0, Z+
  be:	0d 92       	st	X+, r0
  c0:	a6 34       	cpi	r26, 0x46	; 70
  c2:	b1 07       	cpc	r27, r17
  c4:	d9 f7       	brne	.-10     	; 0xbc <__do_copy_data+0x10>

000000c6 <__do_clear_bss>:
  c6:	21 e0       	ldi	r18, 0x01	; 1
  c8:	a6 e4       	ldi	r26, 0x46	; 70
  ca:	b1 e0       	ldi	r27, 0x01	; 1
  cc:	01 c0       	rjmp	.+2      	; 0xd0 <.do_clear_bss_start>

000000ce <.do_clear_bss_loop>:
  ce:	1d 92       	st	X+, r1

000000d0 <.do_clear_bss_start>:
  d0:	ae 35       	cpi	r26, 0x5E	; 94
  d2:	b2 07       	cpc	r27, r18
  d4:	e1 f7       	brne	.-8      	; 0xce <.do_clear_bss_loop>
  d6:	a9 d3       	rcall	.+1874   	; 0x82a <main>
  d8:	31 c5       	rjmp	.+2658   	; 0xb3c <_exit>

000000da <__bad_interrupt>:
  da:	92 cf       	rjmp	.-220    	; 0x0 <__vectors>

000000dc <driver>:
	while(*ip)
	{
		SendCharOnUart0(*ip);
		ip++;
	}
}
  dc:	e2 e6       	ldi	r30, 0x62	; 98
  de:	f0 e0       	ldi	r31, 0x00	; 0
  e0:	90 81       	ld	r25, Z
  e2:	91 7f       	andi	r25, 0xF1	; 241
  e4:	90 83       	st	Z, r25
  e6:	93 b1       	in	r25, 0x03	; 3
  e8:	9f 70       	andi	r25, 0x0F	; 15
  ea:	93 b9       	out	0x03, r25	; 3
  ec:	93 b1       	in	r25, 0x03	; 3
  ee:	89 2b       	or	r24, r25
  f0:	83 b9       	out	0x03, r24	; 3
  f2:	80 81       	ld	r24, Z
  f4:	88 60       	ori	r24, 0x08	; 8
  f6:	80 83       	st	Z, r24
  f8:	87 ec       	ldi	r24, 0xC7	; 199
  fa:	90 e0       	ldi	r25, 0x00	; 0
  fc:	01 97       	sbiw	r24, 0x01	; 1
  fe:	f1 f7       	brne	.-4      	; 0xfc <driver+0x20>
 100:	00 c0       	rjmp	.+0      	; 0x102 <driver+0x26>
 102:	00 00       	nop
 104:	80 81       	ld	r24, Z
 106:	81 7f       	andi	r24, 0xF1	; 241
 108:	80 83       	st	Z, r24
 10a:	8f e1       	ldi	r24, 0x1F	; 31
 10c:	9e e4       	ldi	r25, 0x4E	; 78
 10e:	01 97       	sbiw	r24, 0x01	; 1
 110:	f1 f7       	brne	.-4      	; 0x10e <driver+0x32>
 112:	00 c0       	rjmp	.+0      	; 0x114 <driver+0x38>
 114:	00 00       	nop
 116:	08 95       	ret

00000118 <command>:
 118:	e2 e6       	ldi	r30, 0x62	; 98
 11a:	f0 e0       	ldi	r31, 0x00	; 0
 11c:	90 81       	ld	r25, Z
 11e:	91 7f       	andi	r25, 0xF1	; 241
 120:	90 83       	st	Z, r25
 122:	93 b1       	in	r25, 0x03	; 3
 124:	9f 70       	andi	r25, 0x0F	; 15
 126:	93 b9       	out	0x03, r25	; 3
 128:	93 b1       	in	r25, 0x03	; 3
 12a:	28 2f       	mov	r18, r24
 12c:	20 7f       	andi	r18, 0xF0	; 240
 12e:	92 2b       	or	r25, r18
 130:	93 b9       	out	0x03, r25	; 3
 132:	90 81       	ld	r25, Z
 134:	98 60       	ori	r25, 0x08	; 8
 136:	90 83       	st	Z, r25
 138:	a7 ec       	ldi	r26, 0xC7	; 199
 13a:	b0 e0       	ldi	r27, 0x00	; 0
 13c:	11 97       	sbiw	r26, 0x01	; 1
 13e:	f1 f7       	brne	.-4      	; 0x13c <command+0x24>
 140:	00 c0       	rjmp	.+0      	; 0x142 <command+0x2a>
 142:	00 00       	nop
 144:	90 81       	ld	r25, Z
 146:	91 7f       	andi	r25, 0xF1	; 241
 148:	90 83       	st	Z, r25
 14a:	af eb       	ldi	r26, 0xBF	; 191
 14c:	b7 e1       	ldi	r27, 0x17	; 23
 14e:	11 97       	sbiw	r26, 0x01	; 1
 150:	f1 f7       	brne	.-4      	; 0x14e <command+0x36>
 152:	00 c0       	rjmp	.+0      	; 0x154 <command+0x3c>
 154:	00 00       	nop
 156:	93 b1       	in	r25, 0x03	; 3
 158:	9f 70       	andi	r25, 0x0F	; 15
 15a:	93 b9       	out	0x03, r25	; 3
 15c:	23 b1       	in	r18, 0x03	; 3
 15e:	b0 e1       	ldi	r27, 0x10	; 16
 160:	8b 9f       	mul	r24, r27
 162:	c0 01       	movw	r24, r0
 164:	11 24       	eor	r1, r1
 166:	82 2b       	or	r24, r18
 168:	83 b9       	out	0x03, r24	; 3
 16a:	80 81       	ld	r24, Z
 16c:	88 60       	ori	r24, 0x08	; 8
 16e:	80 83       	st	Z, r24
 170:	87 ec       	ldi	r24, 0xC7	; 199
 172:	90 e0       	ldi	r25, 0x00	; 0
 174:	01 97       	sbiw	r24, 0x01	; 1
 176:	f1 f7       	brne	.-4      	; 0x174 <command+0x5c>
 178:	00 c0       	rjmp	.+0      	; 0x17a <command+0x62>
 17a:	00 00       	nop
 17c:	80 81       	ld	r24, Z
 17e:	81 7f       	andi	r24, 0xF1	; 241
 180:	80 83       	st	Z, r24
 182:	af eb       	ldi	r26, 0xBF	; 191
 184:	b7 e1       	ldi	r27, 0x17	; 23
 186:	11 97       	sbiw	r26, 0x01	; 1
 188:	f1 f7       	brne	.-4      	; 0x186 <command+0x6e>
 18a:	00 c0       	rjmp	.+0      	; 0x18c <command+0x74>
 18c:	00 00       	nop
 18e:	08 95       	ret

00000190 <init_lcd>:
 190:	2f ef       	ldi	r18, 0xFF	; 255
 192:	80 e7       	ldi	r24, 0x70	; 112
 194:	92 e0       	ldi	r25, 0x02	; 2
 196:	21 50       	subi	r18, 0x01	; 1
 198:	80 40       	sbci	r24, 0x00	; 0
 19a:	90 40       	sbci	r25, 0x00	; 0
 19c:	e1 f7       	brne	.-8      	; 0x196 <init_lcd+0x6>
 19e:	00 c0       	rjmp	.+0      	; 0x1a0 <init_lcd+0x10>
 1a0:	00 00       	nop
 1a2:	80 e3       	ldi	r24, 0x30	; 48
 1a4:	9b df       	rcall	.-202    	; 0xdc <driver>
 1a6:	8f e1       	ldi	r24, 0x1F	; 31
 1a8:	9e e4       	ldi	r25, 0x4E	; 78
 1aa:	01 97       	sbiw	r24, 0x01	; 1
 1ac:	f1 f7       	brne	.-4      	; 0x1aa <init_lcd+0x1a>
 1ae:	00 c0       	rjmp	.+0      	; 0x1b0 <init_lcd+0x20>
 1b0:	00 00       	nop
 1b2:	80 e3       	ldi	r24, 0x30	; 48
 1b4:	93 df       	rcall	.-218    	; 0xdc <driver>
 1b6:	8f e1       	ldi	r24, 0x1F	; 31
 1b8:	9e e4       	ldi	r25, 0x4E	; 78
 1ba:	01 97       	sbiw	r24, 0x01	; 1
 1bc:	f1 f7       	brne	.-4      	; 0x1ba <init_lcd+0x2a>
 1be:	00 c0       	rjmp	.+0      	; 0x1c0 <init_lcd+0x30>
 1c0:	00 00       	nop
 1c2:	80 e3       	ldi	r24, 0x30	; 48
 1c4:	8b df       	rcall	.-234    	; 0xdc <driver>
 1c6:	8f e1       	ldi	r24, 0x1F	; 31
 1c8:	9e e4       	ldi	r25, 0x4E	; 78
 1ca:	01 97       	sbiw	r24, 0x01	; 1
 1cc:	f1 f7       	brne	.-4      	; 0x1ca <init_lcd+0x3a>
 1ce:	00 c0       	rjmp	.+0      	; 0x1d0 <init_lcd+0x40>
 1d0:	00 00       	nop
 1d2:	80 e2       	ldi	r24, 0x20	; 32
 1d4:	83 df       	rcall	.-250    	; 0xdc <driver>
 1d6:	8f e1       	ldi	r24, 0x1F	; 31
 1d8:	9e e4       	ldi	r25, 0x4E	; 78
 1da:	01 97       	sbiw	r24, 0x01	; 1
 1dc:	f1 f7       	brne	.-4      	; 0x1da <init_lcd+0x4a>
 1de:	00 c0       	rjmp	.+0      	; 0x1e0 <init_lcd+0x50>
 1e0:	00 00       	nop
 1e2:	88 e2       	ldi	r24, 0x28	; 40
 1e4:	99 df       	rcall	.-206    	; 0x118 <command>
 1e6:	8f e1       	ldi	r24, 0x1F	; 31
 1e8:	9e e4       	ldi	r25, 0x4E	; 78
 1ea:	01 97       	sbiw	r24, 0x01	; 1
 1ec:	f1 f7       	brne	.-4      	; 0x1ea <init_lcd+0x5a>
 1ee:	00 c0       	rjmp	.+0      	; 0x1f0 <init_lcd+0x60>
 1f0:	00 00       	nop
 1f2:	86 e0       	ldi	r24, 0x06	; 6
 1f4:	91 df       	rcall	.-222    	; 0x118 <command>
 1f6:	8f e1       	ldi	r24, 0x1F	; 31
 1f8:	9e e4       	ldi	r25, 0x4E	; 78
 1fa:	01 97       	sbiw	r24, 0x01	; 1
 1fc:	f1 f7       	brne	.-4      	; 0x1fa <init_lcd+0x6a>
 1fe:	00 c0       	rjmp	.+0      	; 0x200 <init_lcd+0x70>
 200:	00 00       	nop
 202:	8f e0       	ldi	r24, 0x0F	; 15
 204:	89 df       	rcall	.-238    	; 0x118 <command>
 206:	8f e1       	ldi	r24, 0x1F	; 31
 208:	9e e4       	ldi	r25, 0x4E	; 78
 20a:	01 97       	sbiw	r24, 0x01	; 1
 20c:	f1 f7       	brne	.-4      	; 0x20a <init_lcd+0x7a>
 20e:	00 c0       	rjmp	.+0      	; 0x210 <init_lcd+0x80>
 210:	00 00       	nop
 212:	81 e0       	ldi	r24, 0x01	; 1
 214:	81 df       	rcall	.-254    	; 0x118 <command>
 216:	8f e1       	ldi	r24, 0x1F	; 31
 218:	9e e4       	ldi	r25, 0x4E	; 78
 21a:	01 97       	sbiw	r24, 0x01	; 1
 21c:	f1 f7       	brne	.-4      	; 0x21a <init_lcd+0x8a>
 21e:	00 c0       	rjmp	.+0      	; 0x220 <init_lcd+0x90>
 220:	00 00       	nop
 222:	08 95       	ret

00000224 <putch>:
 224:	e2 e6       	ldi	r30, 0x62	; 98
 226:	f0 e0       	ldi	r31, 0x00	; 0
 228:	90 81       	ld	r25, Z
 22a:	93 7f       	andi	r25, 0xF3	; 243
 22c:	90 83       	st	Z, r25
 22e:	93 b1       	in	r25, 0x03	; 3
 230:	9f 70       	andi	r25, 0x0F	; 15
 232:	93 b9       	out	0x03, r25	; 3
 234:	93 b1       	in	r25, 0x03	; 3
 236:	28 2f       	mov	r18, r24
 238:	20 7f       	andi	r18, 0xF0	; 240
 23a:	92 2b       	or	r25, r18
 23c:	93 b9       	out	0x03, r25	; 3
 23e:	90 81       	ld	r25, Z
 240:	9a 60       	ori	r25, 0x0A	; 10
 242:	90 83       	st	Z, r25
 244:	a7 ec       	ldi	r26, 0xC7	; 199
 246:	b0 e0       	ldi	r27, 0x00	; 0
 248:	11 97       	sbiw	r26, 0x01	; 1
 24a:	f1 f7       	brne	.-4      	; 0x248 <putch+0x24>
 24c:	00 c0       	rjmp	.+0      	; 0x24e <putch+0x2a>
 24e:	00 00       	nop
 250:	90 81       	ld	r25, Z
 252:	93 7f       	andi	r25, 0xF3	; 243
 254:	90 83       	st	Z, r25
 256:	af eb       	ldi	r26, 0xBF	; 191
 258:	b7 e1       	ldi	r27, 0x17	; 23
 25a:	11 97       	sbiw	r26, 0x01	; 1
 25c:	f1 f7       	brne	.-4      	; 0x25a <putch+0x36>
 25e:	00 c0       	rjmp	.+0      	; 0x260 <putch+0x3c>
 260:	00 00       	nop
 262:	93 b1       	in	r25, 0x03	; 3
 264:	9f 70       	andi	r25, 0x0F	; 15
 266:	93 b9       	out	0x03, r25	; 3
 268:	23 b1       	in	r18, 0x03	; 3
 26a:	b0 e1       	ldi	r27, 0x10	; 16
 26c:	8b 9f       	mul	r24, r27
 26e:	c0 01       	movw	r24, r0
 270:	11 24       	eor	r1, r1
 272:	82 2b       	or	r24, r18
 274:	83 b9       	out	0x03, r24	; 3
 276:	80 81       	ld	r24, Z
 278:	8a 60       	ori	r24, 0x0A	; 10
 27a:	80 83       	st	Z, r24
 27c:	87 ec       	ldi	r24, 0xC7	; 199
 27e:	90 e0       	ldi	r25, 0x00	; 0
 280:	01 97       	sbiw	r24, 0x01	; 1
 282:	f1 f7       	brne	.-4      	; 0x280 <putch+0x5c>
 284:	00 c0       	rjmp	.+0      	; 0x286 <putch+0x62>
 286:	00 00       	nop
 288:	80 81       	ld	r24, Z
 28a:	83 7f       	andi	r24, 0xF3	; 243
 28c:	80 83       	st	Z, r24
 28e:	af eb       	ldi	r26, 0xBF	; 191
 290:	b7 e1       	ldi	r27, 0x17	; 23
 292:	11 97       	sbiw	r26, 0x01	; 1
 294:	f1 f7       	brne	.-4      	; 0x292 <putch+0x6e>
 296:	00 c0       	rjmp	.+0      	; 0x298 <putch+0x74>
 298:	00 00       	nop
 29a:	08 95       	ret

0000029c <StringToLCD>:
 29c:	cf 93       	push	r28
 29e:	df 93       	push	r29
 2a0:	ec 01       	movw	r28, r24
 2a2:	88 81       	ld	r24, Y
 2a4:	88 23       	and	r24, r24
 2a6:	29 f0       	breq	.+10     	; 0x2b2 <StringToLCD+0x16>
 2a8:	21 96       	adiw	r28, 0x01	; 1
 2aa:	bc df       	rcall	.-136    	; 0x224 <putch>
 2ac:	89 91       	ld	r24, Y+
 2ae:	81 11       	cpse	r24, r1
 2b0:	fc cf       	rjmp	.-8      	; 0x2aa <StringToLCD+0xe>
 2b2:	df 91       	pop	r29
 2b4:	cf 91       	pop	r28
 2b6:	08 95       	ret

000002b8 <BillMatrixRead>:
 2b8:	82 30       	cpi	r24, 0x02	; 2
 2ba:	a1 f0       	breq	.+40     	; 0x2e4 <BillMatrixRead+0x2c>
 2bc:	18 f4       	brcc	.+6      	; 0x2c4 <BillMatrixRead+0xc>
 2be:	81 30       	cpi	r24, 0x01	; 1
 2c0:	31 f0       	breq	.+12     	; 0x2ce <BillMatrixRead+0x16>
 2c2:	31 c0       	rjmp	.+98     	; 0x326 <BillMatrixRead+0x6e>
 2c4:	83 30       	cpi	r24, 0x03	; 3
 2c6:	c9 f0       	breq	.+50     	; 0x2fa <BillMatrixRead+0x42>
 2c8:	84 30       	cpi	r24, 0x04	; 4
 2ca:	11 f1       	breq	.+68     	; 0x310 <BillMatrixRead+0x58>
 2cc:	2c c0       	rjmp	.+88     	; 0x326 <BillMatrixRead+0x6e>
 2ce:	98 e0       	ldi	r25, 0x08	; 8
 2d0:	95 bb       	out	0x15, r25	; 21
 2d2:	ef e9       	ldi	r30, 0x9F	; 159
 2d4:	ff e0       	ldi	r31, 0x0F	; 15
 2d6:	31 97       	sbiw	r30, 0x01	; 1
 2d8:	f1 f7       	brne	.-4      	; 0x2d6 <BillMatrixRead+0x1e>
 2da:	00 c0       	rjmp	.+0      	; 0x2dc <BillMatrixRead+0x24>
 2dc:	00 00       	nop
 2de:	98 9b       	sbis	0x13, 0	; 19
 2e0:	63 c0       	rjmp	.+198    	; 0x3a8 <BillMatrixRead+0xf0>
 2e2:	6c c0       	rjmp	.+216    	; 0x3bc <BillMatrixRead+0x104>
 2e4:	90 e1       	ldi	r25, 0x10	; 16
 2e6:	95 bb       	out	0x15, r25	; 21
 2e8:	ef e9       	ldi	r30, 0x9F	; 159
 2ea:	ff e0       	ldi	r31, 0x0F	; 15
 2ec:	31 97       	sbiw	r30, 0x01	; 1
 2ee:	f1 f7       	brne	.-4      	; 0x2ec <BillMatrixRead+0x34>
 2f0:	00 c0       	rjmp	.+0      	; 0x2f2 <BillMatrixRead+0x3a>
 2f2:	00 00       	nop
 2f4:	98 9b       	sbis	0x13, 0	; 19
 2f6:	2a c0       	rjmp	.+84     	; 0x34c <BillMatrixRead+0x94>
 2f8:	67 c0       	rjmp	.+206    	; 0x3c8 <BillMatrixRead+0x110>
 2fa:	90 e2       	ldi	r25, 0x20	; 32
 2fc:	95 bb       	out	0x15, r25	; 21
 2fe:	ef e9       	ldi	r30, 0x9F	; 159
 300:	ff e0       	ldi	r31, 0x0F	; 15
 302:	31 97       	sbiw	r30, 0x01	; 1
 304:	f1 f7       	brne	.-4      	; 0x302 <BillMatrixRead+0x4a>
 306:	00 c0       	rjmp	.+0      	; 0x308 <BillMatrixRead+0x50>
 308:	00 00       	nop
 30a:	98 9b       	sbis	0x13, 0	; 19
 30c:	21 c0       	rjmp	.+66     	; 0x350 <BillMatrixRead+0x98>
 30e:	59 c0       	rjmp	.+178    	; 0x3c2 <BillMatrixRead+0x10a>
 310:	90 e4       	ldi	r25, 0x40	; 64
 312:	95 bb       	out	0x15, r25	; 21
 314:	ef e9       	ldi	r30, 0x9F	; 159
 316:	ff e0       	ldi	r31, 0x0F	; 15
 318:	31 97       	sbiw	r30, 0x01	; 1
 31a:	f1 f7       	brne	.-4      	; 0x318 <BillMatrixRead+0x60>
 31c:	00 c0       	rjmp	.+0      	; 0x31e <BillMatrixRead+0x66>
 31e:	00 00       	nop
 320:	98 9b       	sbis	0x13, 0	; 19
 322:	18 c0       	rjmp	.+48     	; 0x354 <BillMatrixRead+0x9c>
 324:	54 c0       	rjmp	.+168    	; 0x3ce <BillMatrixRead+0x116>
 326:	ef e9       	ldi	r30, 0x9F	; 159
 328:	ff e0       	ldi	r31, 0x0F	; 15
 32a:	31 97       	sbiw	r30, 0x01	; 1
 32c:	f1 f7       	brne	.-4      	; 0x32a <BillMatrixRead+0x72>
 32e:	00 c0       	rjmp	.+0      	; 0x330 <BillMatrixRead+0x78>
 330:	00 00       	nop
 332:	98 99       	sbic	0x13, 0	; 19
 334:	11 c0       	rjmp	.+34     	; 0x358 <BillMatrixRead+0xa0>
 336:	82 30       	cpi	r24, 0x02	; 2
 338:	49 f0       	breq	.+18     	; 0x34c <BillMatrixRead+0x94>
 33a:	18 f4       	brcc	.+6      	; 0x342 <BillMatrixRead+0x8a>
 33c:	81 30       	cpi	r24, 0x01	; 1
 33e:	b1 f1       	breq	.+108    	; 0x3ac <BillMatrixRead+0xf4>
 340:	31 c0       	rjmp	.+98     	; 0x3a4 <BillMatrixRead+0xec>
 342:	83 30       	cpi	r24, 0x03	; 3
 344:	29 f0       	breq	.+10     	; 0x350 <BillMatrixRead+0x98>
 346:	84 30       	cpi	r24, 0x04	; 4
 348:	29 f0       	breq	.+10     	; 0x354 <BillMatrixRead+0x9c>
 34a:	2c c0       	rjmp	.+88     	; 0x3a4 <BillMatrixRead+0xec>
 34c:	84 e3       	ldi	r24, 0x34	; 52
 34e:	08 95       	ret
 350:	87 e3       	ldi	r24, 0x37	; 55
 352:	08 95       	ret
 354:	8a e2       	ldi	r24, 0x2A	; 42
 356:	08 95       	ret
 358:	99 99       	sbic	0x13, 1	; 19
 35a:	11 c0       	rjmp	.+34     	; 0x37e <BillMatrixRead+0xc6>
 35c:	82 30       	cpi	r24, 0x02	; 2
 35e:	41 f1       	breq	.+80     	; 0x3b0 <BillMatrixRead+0xf8>
 360:	18 f4       	brcc	.+6      	; 0x368 <BillMatrixRead+0xb0>
 362:	81 30       	cpi	r24, 0x01	; 1
 364:	31 f0       	breq	.+12     	; 0x372 <BillMatrixRead+0xba>
 366:	1e c0       	rjmp	.+60     	; 0x3a4 <BillMatrixRead+0xec>
 368:	83 30       	cpi	r24, 0x03	; 3
 36a:	29 f0       	breq	.+10     	; 0x376 <BillMatrixRead+0xbe>
 36c:	84 30       	cpi	r24, 0x04	; 4
 36e:	29 f0       	breq	.+10     	; 0x37a <BillMatrixRead+0xc2>
 370:	19 c0       	rjmp	.+50     	; 0x3a4 <BillMatrixRead+0xec>
 372:	82 e3       	ldi	r24, 0x32	; 50
 374:	08 95       	ret
 376:	88 e3       	ldi	r24, 0x38	; 56
 378:	08 95       	ret
 37a:	80 e3       	ldi	r24, 0x30	; 48
 37c:	08 95       	ret
 37e:	9a 99       	sbic	0x13, 2	; 19
 380:	11 c0       	rjmp	.+34     	; 0x3a4 <BillMatrixRead+0xec>
 382:	82 30       	cpi	r24, 0x02	; 2
 384:	49 f0       	breq	.+18     	; 0x398 <BillMatrixRead+0xe0>
 386:	18 f4       	brcc	.+6      	; 0x38e <BillMatrixRead+0xd6>
 388:	81 30       	cpi	r24, 0x01	; 1
 38a:	a1 f0       	breq	.+40     	; 0x3b4 <BillMatrixRead+0xfc>
 38c:	0b c0       	rjmp	.+22     	; 0x3a4 <BillMatrixRead+0xec>
 38e:	83 30       	cpi	r24, 0x03	; 3
 390:	29 f0       	breq	.+10     	; 0x39c <BillMatrixRead+0xe4>
 392:	84 30       	cpi	r24, 0x04	; 4
 394:	29 f0       	breq	.+10     	; 0x3a0 <BillMatrixRead+0xe8>
 396:	06 c0       	rjmp	.+12     	; 0x3a4 <BillMatrixRead+0xec>
 398:	86 e3       	ldi	r24, 0x36	; 54
 39a:	08 95       	ret
 39c:	89 e3       	ldi	r24, 0x39	; 57
 39e:	08 95       	ret
 3a0:	83 e2       	ldi	r24, 0x23	; 35
 3a2:	08 95       	ret
 3a4:	8e e4       	ldi	r24, 0x4E	; 78
 3a6:	08 95       	ret
 3a8:	81 e3       	ldi	r24, 0x31	; 49
 3aa:	08 95       	ret
 3ac:	81 e3       	ldi	r24, 0x31	; 49
 3ae:	08 95       	ret
 3b0:	85 e3       	ldi	r24, 0x35	; 53
 3b2:	08 95       	ret
 3b4:	83 e3       	ldi	r24, 0x33	; 51
 3b6:	08 95       	ret
 3b8:	85 e3       	ldi	r24, 0x35	; 53
 3ba:	08 95       	ret
 3bc:	99 9b       	sbis	0x13, 1	; 19
 3be:	d9 cf       	rjmp	.-78     	; 0x372 <BillMatrixRead+0xba>
 3c0:	de cf       	rjmp	.-68     	; 0x37e <BillMatrixRead+0xc6>
 3c2:	99 9b       	sbis	0x13, 1	; 19
 3c4:	d8 cf       	rjmp	.-80     	; 0x376 <BillMatrixRead+0xbe>
 3c6:	db cf       	rjmp	.-74     	; 0x37e <BillMatrixRead+0xc6>
 3c8:	99 9b       	sbis	0x13, 1	; 19
 3ca:	f6 cf       	rjmp	.-20     	; 0x3b8 <BillMatrixRead+0x100>
 3cc:	d8 cf       	rjmp	.-80     	; 0x37e <BillMatrixRead+0xc6>
 3ce:	99 9b       	sbis	0x13, 1	; 19
 3d0:	d4 cf       	rjmp	.-88     	; 0x37a <BillMatrixRead+0xc2>
 3d2:	d5 cf       	rjmp	.-86     	; 0x37e <BillMatrixRead+0xc6>

000003d4 <HW_Init>:
 3d4:	f8 94       	cli
 3d6:	10 92 64 00 	sts	0x0064, r1	; 0x800064 <__TEXT_REGION_LENGTH__+0x7e0064>
 3da:	10 92 65 00 	sts	0x0065, r1	; 0x800065 <__TEXT_REGION_LENGTH__+0x7e0065>
 3de:	8f ef       	ldi	r24, 0xFF	; 255
 3e0:	8a bb       	out	0x1a, r24	; 26
 3e2:	88 ef       	ldi	r24, 0xF8	; 248
 3e4:	84 bb       	out	0x14, r24	; 20
 3e6:	8e e0       	ldi	r24, 0x0E	; 14
 3e8:	80 93 61 00 	sts	0x0061, r24	; 0x800061 <__TEXT_REGION_LENGTH__+0x7e0061>
 3ec:	80 ef       	ldi	r24, 0xF0	; 240
 3ee:	82 b9       	out	0x02, r24	; 2
 3f0:	87 e6       	ldi	r24, 0x67	; 103
 3f2:	89 b9       	out	0x09, r24	; 9
 3f4:	10 92 90 00 	sts	0x0090, r1	; 0x800090 <__TEXT_REGION_LENGTH__+0x7e0090>
 3f8:	e5 e9       	ldi	r30, 0x95	; 149
 3fa:	f0 e0       	ldi	r31, 0x00	; 0
 3fc:	80 81       	ld	r24, Z
 3fe:	86 60       	ori	r24, 0x06	; 6
 400:	80 83       	st	Z, r24
 402:	8a b1       	in	r24, 0x0a	; 10
 404:	88 69       	ori	r24, 0x98	; 152
 406:	8a b9       	out	0x0a, r24	; 10
 408:	80 e2       	ldi	r24, 0x20	; 32
 40a:	85 bf       	out	0x35, r24	; 53
 40c:	08 95       	ret

0000040e <orakijelzes>:
	
	orakijelzes();
}

void orakijelzes(void)
{	
 40e:	cf 93       	push	r28
 410:	df 93       	push	r29
	command(CLR_SCR);
 412:	81 e0       	ldi	r24, 0x01	; 1
 414:	81 de       	rcall	.-766    	; 0x118 <command>
	command(HOME);
 416:	82 e0       	ldi	r24, 0x02	; 2
 418:	7f de       	rcall	.-770    	; 0x118 <command>
	
	putch(ora/10+48);			// ora tizes helyiertekenek elkuldese
 41a:	80 91 5a 01 	lds	r24, 0x015A	; 0x80015a <ora>
 41e:	90 91 5b 01 	lds	r25, 0x015B	; 0x80015b <ora+0x1>
 422:	ca e0       	ldi	r28, 0x0A	; 10
 424:	d0 e0       	ldi	r29, 0x00	; 0
 426:	be 01       	movw	r22, r28
 428:	59 d3       	rcall	.+1714   	; 0xadc <__divmodhi4>
 42a:	80 e3       	ldi	r24, 0x30	; 48
 42c:	86 0f       	add	r24, r22
 42e:	fa de       	rcall	.-524    	; 0x224 <putch>
	putch(ora%10+48);			//ora egyes helyiertekenek elkuldese
 430:	80 91 5a 01 	lds	r24, 0x015A	; 0x80015a <ora>
 434:	90 91 5b 01 	lds	r25, 0x015B	; 0x80015b <ora+0x1>
 438:	be 01       	movw	r22, r28
 43a:	50 d3       	rcall	.+1696   	; 0xadc <__divmodhi4>
 43c:	80 5d       	subi	r24, 0xD0	; 208
 43e:	f2 de       	rcall	.-540    	; 0x224 <putch>
	putch(':');
 440:	8a e3       	ldi	r24, 0x3A	; 58
 442:	f0 de       	rcall	.-544    	; 0x224 <putch>
	putch(perc/10+48);			// perc tizes helyiertekenek elkuldese
 444:	80 91 58 01 	lds	r24, 0x0158	; 0x800158 <perc>
 448:	90 91 59 01 	lds	r25, 0x0159	; 0x800159 <perc+0x1>
 44c:	be 01       	movw	r22, r28
 44e:	46 d3       	rcall	.+1676   	; 0xadc <__divmodhi4>
 450:	80 e3       	ldi	r24, 0x30	; 48
 452:	86 0f       	add	r24, r22
 454:	e7 de       	rcall	.-562    	; 0x224 <putch>
	putch(perc%10+48);			//perc egyes helyiertekenek elkuldese
 456:	80 91 58 01 	lds	r24, 0x0158	; 0x800158 <perc>
 45a:	90 91 59 01 	lds	r25, 0x0159	; 0x800159 <perc+0x1>
 45e:	be 01       	movw	r22, r28
 460:	3d d3       	rcall	.+1658   	; 0xadc <__divmodhi4>
 462:	80 5d       	subi	r24, 0xD0	; 208
 464:	df de       	rcall	.-578    	; 0x224 <putch>
	putch(':');
 466:	8a e3       	ldi	r24, 0x3A	; 58
 468:	dd de       	rcall	.-582    	; 0x224 <putch>
	putch(mp/10+48);			// mp tizes helyiertekenek elkuldese
 46a:	80 91 56 01 	lds	r24, 0x0156	; 0x800156 <mp>
 46e:	90 91 57 01 	lds	r25, 0x0157	; 0x800157 <mp+0x1>
 472:	be 01       	movw	r22, r28
 474:	33 d3       	rcall	.+1638   	; 0xadc <__divmodhi4>
 476:	80 e3       	ldi	r24, 0x30	; 48
 478:	86 0f       	add	r24, r22
 47a:	d4 de       	rcall	.-600    	; 0x224 <putch>
	putch(mp%10+48);			//mp egyes helyiertekenek elkuldese
 47c:	80 91 56 01 	lds	r24, 0x0156	; 0x800156 <mp>
 480:	90 91 57 01 	lds	r25, 0x0157	; 0x800157 <mp+0x1>
 484:	be 01       	movw	r22, r28
 486:	2a d3       	rcall	.+1620   	; 0xadc <__divmodhi4>
 488:	80 5d       	subi	r24, 0xD0	; 208
 48a:	cc de       	rcall	.-616    	; 0x224 <putch>


// stopper lcdre

		command(FO_LINE_BEG);	//4. sorba irjuk a stoppert
 48c:	80 ed       	ldi	r24, 0xD0	; 208
 48e:	44 de       	rcall	.-888    	; 0x118 <command>
		putch(sora/10+48);
 490:	80 91 50 01 	lds	r24, 0x0150	; 0x800150 <sora>
 494:	90 91 51 01 	lds	r25, 0x0151	; 0x800151 <sora+0x1>
 498:	be 01       	movw	r22, r28
 49a:	20 d3       	rcall	.+1600   	; 0xadc <__divmodhi4>
 49c:	80 e3       	ldi	r24, 0x30	; 48
 49e:	86 0f       	add	r24, r22
 4a0:	c1 de       	rcall	.-638    	; 0x224 <putch>
		putch(sora%10+48);
 4a2:	80 91 50 01 	lds	r24, 0x0150	; 0x800150 <sora>
 4a6:	90 91 51 01 	lds	r25, 0x0151	; 0x800151 <sora+0x1>
 4aa:	be 01       	movw	r22, r28
 4ac:	17 d3       	rcall	.+1582   	; 0xadc <__divmodhi4>
 4ae:	80 5d       	subi	r24, 0xD0	; 208
 4b0:	b9 de       	rcall	.-654    	; 0x224 <putch>
		putch(':');
 4b2:	8a e3       	ldi	r24, 0x3A	; 58
 4b4:	b7 de       	rcall	.-658    	; 0x224 <putch>
		putch(sperc/10+48);
 4b6:	80 91 4e 01 	lds	r24, 0x014E	; 0x80014e <sperc>
 4ba:	90 91 4f 01 	lds	r25, 0x014F	; 0x80014f <sperc+0x1>
 4be:	be 01       	movw	r22, r28
 4c0:	0d d3       	rcall	.+1562   	; 0xadc <__divmodhi4>
 4c2:	80 e3       	ldi	r24, 0x30	; 48
 4c4:	86 0f       	add	r24, r22
 4c6:	ae de       	rcall	.-676    	; 0x224 <putch>
		putch(sperc/10+48);
 4c8:	80 91 4e 01 	lds	r24, 0x014E	; 0x80014e <sperc>
 4cc:	90 91 4f 01 	lds	r25, 0x014F	; 0x80014f <sperc+0x1>
 4d0:	be 01       	movw	r22, r28
 4d2:	04 d3       	rcall	.+1544   	; 0xadc <__divmodhi4>
 4d4:	80 e3       	ldi	r24, 0x30	; 48
 4d6:	86 0f       	add	r24, r22
 4d8:	a5 de       	rcall	.-694    	; 0x224 <putch>
		putch(':');
 4da:	8a e3       	ldi	r24, 0x3A	; 58
 4dc:	a3 de       	rcall	.-698    	; 0x224 <putch>
		putch(smp/10+48);
 4de:	80 91 4c 01 	lds	r24, 0x014C	; 0x80014c <smp>
 4e2:	90 91 4d 01 	lds	r25, 0x014D	; 0x80014d <smp+0x1>
 4e6:	be 01       	movw	r22, r28
 4e8:	f9 d2       	rcall	.+1522   	; 0xadc <__divmodhi4>
 4ea:	80 e3       	ldi	r24, 0x30	; 48
 4ec:	86 0f       	add	r24, r22
 4ee:	9a de       	rcall	.-716    	; 0x224 <putch>
		putch(smp%10+48);
 4f0:	80 91 4c 01 	lds	r24, 0x014C	; 0x80014c <smp>
 4f4:	90 91 4d 01 	lds	r25, 0x014D	; 0x80014d <smp+0x1>
 4f8:	be 01       	movw	r22, r28
 4fa:	f0 d2       	rcall	.+1504   	; 0xadc <__divmodhi4>
 4fc:	80 5d       	subi	r24, 0xD0	; 208
 4fe:	92 de       	rcall	.-732    	; 0x224 <putch>
		putch(':');
 500:	8a e3       	ldi	r24, 0x3A	; 58
 502:	90 de       	rcall	.-736    	; 0x224 <putch>
		putch(szmp/10+48);
 504:	80 91 54 01 	lds	r24, 0x0154	; 0x800154 <szmp>
 508:	90 91 55 01 	lds	r25, 0x0155	; 0x800155 <szmp+0x1>
 50c:	be 01       	movw	r22, r28
 50e:	e6 d2       	rcall	.+1484   	; 0xadc <__divmodhi4>
 510:	80 e3       	ldi	r24, 0x30	; 48
 512:	86 0f       	add	r24, r22
 514:	87 de       	rcall	.-754    	; 0x224 <putch>
		putch(szmp%10+48);
 516:	80 91 54 01 	lds	r24, 0x0154	; 0x800154 <szmp>
 51a:	90 91 55 01 	lds	r25, 0x0155	; 0x800155 <szmp+0x1>
 51e:	be 01       	movw	r22, r28
 520:	dd d2       	rcall	.+1466   	; 0xadc <__divmodhi4>
 522:	80 5d       	subi	r24, 0xD0	; 208
 524:	7f de       	rcall	.-770    	; 0x224 <putch>
					
}
 526:	df 91       	pop	r29
 528:	cf 91       	pop	r28
 52a:	08 95       	ret

0000052c <oramu>:
}


void oramu(void)
{
	mp++;
 52c:	80 91 56 01 	lds	r24, 0x0156	; 0x800156 <mp>
 530:	90 91 57 01 	lds	r25, 0x0157	; 0x800157 <mp+0x1>
 534:	01 96       	adiw	r24, 0x01	; 1
 536:	90 93 57 01 	sts	0x0157, r25	; 0x800157 <mp+0x1>
 53a:	80 93 56 01 	sts	0x0156, r24	; 0x800156 <mp>
	if(mp==60)		// ha mp eleri a 60-at
 53e:	80 91 56 01 	lds	r24, 0x0156	; 0x800156 <mp>
 542:	90 91 57 01 	lds	r25, 0x0157	; 0x800157 <mp+0x1>
 546:	cc 97       	sbiw	r24, 0x3c	; 60
 548:	69 f4       	brne	.+26     	; 0x564 <oramu+0x38>
	{
		perc++;		//percet noveljuk
 54a:	80 91 58 01 	lds	r24, 0x0158	; 0x800158 <perc>
 54e:	90 91 59 01 	lds	r25, 0x0159	; 0x800159 <perc+0x1>
 552:	01 96       	adiw	r24, 0x01	; 1
 554:	90 93 59 01 	sts	0x0159, r25	; 0x800159 <perc+0x1>
 558:	80 93 58 01 	sts	0x0158, r24	; 0x800158 <perc>
		mp=0;		//mp-t nullázzuk
 55c:	10 92 57 01 	sts	0x0157, r1	; 0x800157 <mp+0x1>
 560:	10 92 56 01 	sts	0x0156, r1	; 0x800156 <mp>
	}
	if(perc==60)	//ha perc eleri a 60-at
 564:	80 91 58 01 	lds	r24, 0x0158	; 0x800158 <perc>
 568:	90 91 59 01 	lds	r25, 0x0159	; 0x800159 <perc+0x1>
 56c:	cc 97       	sbiw	r24, 0x3c	; 60
 56e:	69 f4       	brne	.+26     	; 0x58a <oramu+0x5e>
	{
		ora++;		//orat noveljuk
 570:	80 91 5a 01 	lds	r24, 0x015A	; 0x80015a <ora>
 574:	90 91 5b 01 	lds	r25, 0x015B	; 0x80015b <ora+0x1>
 578:	01 96       	adiw	r24, 0x01	; 1
 57a:	90 93 5b 01 	sts	0x015B, r25	; 0x80015b <ora+0x1>
 57e:	80 93 5a 01 	sts	0x015A, r24	; 0x80015a <ora>
		perc=0;		//percet nullazzuk
 582:	10 92 59 01 	sts	0x0159, r1	; 0x800159 <perc+0x1>
 586:	10 92 58 01 	sts	0x0158, r1	; 0x800158 <perc>
	}
	if(ora==24)		//ha ora eleri a 24-et
 58a:	80 91 5a 01 	lds	r24, 0x015A	; 0x80015a <ora>
 58e:	90 91 5b 01 	lds	r25, 0x015B	; 0x80015b <ora+0x1>
 592:	48 97       	sbiw	r24, 0x18	; 24
 594:	21 f4       	brne	.+8      	; 0x59e <oramu+0x72>
	{
		ora=0;		//orat nullazzuk
 596:	10 92 5b 01 	sts	0x015B, r1	; 0x80015b <ora+0x1>
 59a:	10 92 5a 01 	sts	0x015A, r1	; 0x80015a <ora>
	}
	orakijelzes();
 59e:	37 cf       	rjmp	.-402    	; 0x40e <orakijelzes>
 5a0:	08 95       	ret

000005a2 <stopper>:
}

void stopper(void)
{
	szmp=szmp+10;		//tizedmasodpercek hozzadasa
 5a2:	80 91 54 01 	lds	r24, 0x0154	; 0x800154 <szmp>
 5a6:	90 91 55 01 	lds	r25, 0x0155	; 0x800155 <szmp+0x1>
 5aa:	0a 96       	adiw	r24, 0x0a	; 10
 5ac:	90 93 55 01 	sts	0x0155, r25	; 0x800155 <szmp+0x1>
 5b0:	80 93 54 01 	sts	0x0154, r24	; 0x800154 <szmp>
	if(szmp==100)		// ha szmp eleri a 100-at
 5b4:	80 91 54 01 	lds	r24, 0x0154	; 0x800154 <szmp>
 5b8:	90 91 55 01 	lds	r25, 0x0155	; 0x800155 <szmp+0x1>
 5bc:	84 36       	cpi	r24, 0x64	; 100
 5be:	91 05       	cpc	r25, r1
 5c0:	69 f4       	brne	.+26     	; 0x5dc <stopper+0x3a>
	{
		smp++;			//mpercet noveljuk
 5c2:	80 91 4c 01 	lds	r24, 0x014C	; 0x80014c <smp>
 5c6:	90 91 4d 01 	lds	r25, 0x014D	; 0x80014d <smp+0x1>
 5ca:	01 96       	adiw	r24, 0x01	; 1
 5cc:	90 93 4d 01 	sts	0x014D, r25	; 0x80014d <smp+0x1>
 5d0:	80 93 4c 01 	sts	0x014C, r24	; 0x80014c <smp>
		szmp=0;			//szmp-t nullázzuk
 5d4:	10 92 55 01 	sts	0x0155, r1	; 0x800155 <szmp+0x1>
 5d8:	10 92 54 01 	sts	0x0154, r1	; 0x800154 <szmp>
	}
	if (smp==60)
 5dc:	80 91 4c 01 	lds	r24, 0x014C	; 0x80014c <smp>
 5e0:	90 91 4d 01 	lds	r25, 0x014D	; 0x80014d <smp+0x1>
 5e4:	cc 97       	sbiw	r24, 0x3c	; 60
 5e6:	69 f4       	brne	.+26     	; 0x602 <stopper+0x60>
	{
		sperc++;		//percet noveljuk
 5e8:	80 91 4e 01 	lds	r24, 0x014E	; 0x80014e <sperc>
 5ec:	90 91 4f 01 	lds	r25, 0x014F	; 0x80014f <sperc+0x1>
 5f0:	01 96       	adiw	r24, 0x01	; 1
 5f2:	90 93 4f 01 	sts	0x014F, r25	; 0x80014f <sperc+0x1>
 5f6:	80 93 4e 01 	sts	0x014E, r24	; 0x80014e <sperc>
		smp=0;			//mp-t nullázzuk
 5fa:	10 92 4d 01 	sts	0x014D, r1	; 0x80014d <smp+0x1>
 5fe:	10 92 4c 01 	sts	0x014C, r1	; 0x80014c <smp>
	}
	if(sperc==60)		//ha perc eleri a 60-at
 602:	80 91 4e 01 	lds	r24, 0x014E	; 0x80014e <sperc>
 606:	90 91 4f 01 	lds	r25, 0x014F	; 0x80014f <sperc+0x1>
 60a:	cc 97       	sbiw	r24, 0x3c	; 60
 60c:	69 f4       	brne	.+26     	; 0x628 <stopper+0x86>
	{
		sora++;			//orat noveljuk
 60e:	80 91 50 01 	lds	r24, 0x0150	; 0x800150 <sora>
 612:	90 91 51 01 	lds	r25, 0x0151	; 0x800151 <sora+0x1>
 616:	01 96       	adiw	r24, 0x01	; 1
 618:	90 93 51 01 	sts	0x0151, r25	; 0x800151 <sora+0x1>
 61c:	80 93 50 01 	sts	0x0150, r24	; 0x800150 <sora>
		sperc=0;		//percet nullazzuk
 620:	10 92 4f 01 	sts	0x014F, r1	; 0x80014f <sperc+0x1>
 624:	10 92 4e 01 	sts	0x014E, r1	; 0x80014e <sperc>
	}
	if(sora==24)		//ha ora eleri a 24-et
 628:	80 91 50 01 	lds	r24, 0x0150	; 0x800150 <sora>
 62c:	90 91 51 01 	lds	r25, 0x0151	; 0x800151 <sora+0x1>
 630:	48 97       	sbiw	r24, 0x18	; 24
 632:	21 f4       	brne	.+8      	; 0x63c <stopper+0x9a>
	{
		sora=0;			//orat nullazzuk
 634:	10 92 51 01 	sts	0x0151, r1	; 0x800151 <sora+0x1>
 638:	10 92 50 01 	sts	0x0150, r1	; 0x800150 <sora>
	}
	
	orakijelzes();
 63c:	e8 ce       	rjmp	.-560    	; 0x40e <orakijelzes>
 63e:	08 95       	ret

00000640 <orabeallitas>:
}

void orabeallitas()
{
	
	TCCR0=0;						//idozito leallitas
 640:	13 be       	out	0x33, r1	; 51
	switch(UtoljaraLenyomottGomb) 
 642:	e0 91 02 01 	lds	r30, 0x0102	; 0x800102 <UtoljaraLenyomottGomb>
 646:	8e 2f       	mov	r24, r30
 648:	90 e0       	ldi	r25, 0x00	; 0
 64a:	fc 01       	movw	r30, r24
 64c:	f0 97       	sbiw	r30, 0x30	; 48
 64e:	ea 30       	cpi	r30, 0x0A	; 10
 650:	f1 05       	cpc	r31, r1
 652:	08 f0       	brcs	.+2      	; 0x656 <orabeallitas+0x16>
 654:	46 c0       	rjmp	.+140    	; 0x6e2 <orabeallitas+0xa2>
 656:	ea 5b       	subi	r30, 0xBA	; 186
 658:	ff 4f       	sbci	r31, 0xFF	; 255
 65a:	53 c2       	rjmp	.+1190   	; 0xb02 <__tablejump2__>
	{
		case '0': ertek=0; break;	//beirt karakter helyett 0 int tipust irunk az ertek valtozoba
 65c:	10 92 53 01 	sts	0x0153, r1	; 0x800153 <ertek+0x1>
 660:	10 92 52 01 	sts	0x0152, r1	; 0x800152 <ertek>
 664:	3e c0       	rjmp	.+124    	; 0x6e2 <orabeallitas+0xa2>
		case '1': ertek=1; break;	//beirt karakter karakter helyett 1 int tipust irunk az ertek valtozoba
 666:	81 e0       	ldi	r24, 0x01	; 1
 668:	90 e0       	ldi	r25, 0x00	; 0
 66a:	90 93 53 01 	sts	0x0153, r25	; 0x800153 <ertek+0x1>
 66e:	80 93 52 01 	sts	0x0152, r24	; 0x800152 <ertek>
 672:	37 c0       	rjmp	.+110    	; 0x6e2 <orabeallitas+0xa2>
		case '2': ertek=2; break;	//beirt karakter karakter helyett 2 int tipust irunk az ertek valtozoba
 674:	82 e0       	ldi	r24, 0x02	; 2
 676:	90 e0       	ldi	r25, 0x00	; 0
 678:	90 93 53 01 	sts	0x0153, r25	; 0x800153 <ertek+0x1>
 67c:	80 93 52 01 	sts	0x0152, r24	; 0x800152 <ertek>
 680:	30 c0       	rjmp	.+96     	; 0x6e2 <orabeallitas+0xa2>
		case '3': ertek=3; break;	//beirt karakter karakter helyett 3 int tipust irunk az ertek valtozoba
 682:	83 e0       	ldi	r24, 0x03	; 3
 684:	90 e0       	ldi	r25, 0x00	; 0
 686:	90 93 53 01 	sts	0x0153, r25	; 0x800153 <ertek+0x1>
 68a:	80 93 52 01 	sts	0x0152, r24	; 0x800152 <ertek>
 68e:	29 c0       	rjmp	.+82     	; 0x6e2 <orabeallitas+0xa2>
		case '4': ertek=4; break;	//beirt karakter karakter helyett 4 int tipust irunk az ertek valtozoba
 690:	84 e0       	ldi	r24, 0x04	; 4
 692:	90 e0       	ldi	r25, 0x00	; 0
 694:	90 93 53 01 	sts	0x0153, r25	; 0x800153 <ertek+0x1>
 698:	80 93 52 01 	sts	0x0152, r24	; 0x800152 <ertek>
 69c:	22 c0       	rjmp	.+68     	; 0x6e2 <orabeallitas+0xa2>
		case '5': ertek=5; break;	//beirt karakter karakter helyett 5 int tipust irunk az ertek valtozoba
 69e:	85 e0       	ldi	r24, 0x05	; 5
 6a0:	90 e0       	ldi	r25, 0x00	; 0
 6a2:	90 93 53 01 	sts	0x0153, r25	; 0x800153 <ertek+0x1>
 6a6:	80 93 52 01 	sts	0x0152, r24	; 0x800152 <ertek>
 6aa:	1b c0       	rjmp	.+54     	; 0x6e2 <orabeallitas+0xa2>
		case '6': ertek=6; break;	//beirt karakter karakter helyett 6 int tipust irunk az ertek valtozoba
 6ac:	86 e0       	ldi	r24, 0x06	; 6
 6ae:	90 e0       	ldi	r25, 0x00	; 0
 6b0:	90 93 53 01 	sts	0x0153, r25	; 0x800153 <ertek+0x1>
 6b4:	80 93 52 01 	sts	0x0152, r24	; 0x800152 <ertek>
 6b8:	14 c0       	rjmp	.+40     	; 0x6e2 <orabeallitas+0xa2>
		case '7': ertek=7; break;	//beirt karakter karakter helyett 7 int tipust irunk az ertek valtozoba
 6ba:	87 e0       	ldi	r24, 0x07	; 7
 6bc:	90 e0       	ldi	r25, 0x00	; 0
 6be:	90 93 53 01 	sts	0x0153, r25	; 0x800153 <ertek+0x1>
 6c2:	80 93 52 01 	sts	0x0152, r24	; 0x800152 <ertek>
 6c6:	0d c0       	rjmp	.+26     	; 0x6e2 <orabeallitas+0xa2>
		case '8': ertek=8; break;	//beirt karakter karakter helyett 8 int tipust irunk az ertek valtozoba
 6c8:	88 e0       	ldi	r24, 0x08	; 8
 6ca:	90 e0       	ldi	r25, 0x00	; 0
 6cc:	90 93 53 01 	sts	0x0153, r25	; 0x800153 <ertek+0x1>
 6d0:	80 93 52 01 	sts	0x0152, r24	; 0x800152 <ertek>
 6d4:	06 c0       	rjmp	.+12     	; 0x6e2 <orabeallitas+0xa2>
		case '9': ertek=9; break;	//beirt karakter karakter helyett 9 int tipust irunk az ertek valtozoba
 6d6:	89 e0       	ldi	r24, 0x09	; 9
 6d8:	90 e0       	ldi	r25, 0x00	; 0
 6da:	90 93 53 01 	sts	0x0153, r25	; 0x800153 <ertek+0x1>
 6de:	80 93 52 01 	sts	0x0152, r24	; 0x800152 <ertek>
		default:break;
	}
	if(i==0)						// ora tizes helyiertekenek bekerese (segedvaltozo,hogy melyik helyierteket irjuk)
 6e2:	80 91 46 01 	lds	r24, 0x0146	; 0x800146 <__data_end>
 6e6:	81 11       	cpse	r24, r1
 6e8:	1a c0       	rjmp	.+52     	; 0x71e <orabeallitas+0xde>
	{
		ora = ertek*10;				//ora tizedes helyiertekenek megadasa
 6ea:	80 91 52 01 	lds	r24, 0x0152	; 0x800152 <ertek>
 6ee:	90 91 53 01 	lds	r25, 0x0153	; 0x800153 <ertek+0x1>
 6f2:	9c 01       	movw	r18, r24
 6f4:	22 0f       	add	r18, r18
 6f6:	33 1f       	adc	r19, r19
 6f8:	88 0f       	add	r24, r24
 6fa:	99 1f       	adc	r25, r25
 6fc:	88 0f       	add	r24, r24
 6fe:	99 1f       	adc	r25, r25
 700:	88 0f       	add	r24, r24
 702:	99 1f       	adc	r25, r25
 704:	82 0f       	add	r24, r18
 706:	93 1f       	adc	r25, r19
 708:	90 93 5b 01 	sts	0x015B, r25	; 0x80015b <ora+0x1>
 70c:	80 93 5a 01 	sts	0x015A, r24	; 0x80015a <ora>
		i++;						//segedvaltozo novelese
 710:	80 91 46 01 	lds	r24, 0x0146	; 0x800146 <__data_end>
 714:	8f 5f       	subi	r24, 0xFF	; 255
 716:	80 93 46 01 	sts	0x0146, r24	; 0x800146 <__data_end>
		orakijelzes();				//ido kijelzese
 71a:	79 de       	rcall	.-782    	; 0x40e <orakijelzes>
 71c:	84 c0       	rjmp	.+264    	; 0x826 <orabeallitas+0x1e6>
	}else
	if (i== 1)						// ora egyes helyiertekenek bekerese
 71e:	80 91 46 01 	lds	r24, 0x0146	; 0x800146 <__data_end>
 722:	81 30       	cpi	r24, 0x01	; 1
 724:	79 f5       	brne	.+94     	; 0x784 <orabeallitas+0x144>
	{
		ora = ora+ertek;			//ora egyes helyierteket hozzaadjuk
 726:	20 91 5a 01 	lds	r18, 0x015A	; 0x80015a <ora>
 72a:	30 91 5b 01 	lds	r19, 0x015B	; 0x80015b <ora+0x1>
 72e:	80 91 52 01 	lds	r24, 0x0152	; 0x800152 <ertek>
 732:	90 91 53 01 	lds	r25, 0x0153	; 0x800153 <ertek+0x1>
 736:	82 0f       	add	r24, r18
 738:	93 1f       	adc	r25, r19
 73a:	90 93 5b 01 	sts	0x015B, r25	; 0x80015b <ora+0x1>
 73e:	80 93 5a 01 	sts	0x015A, r24	; 0x80015a <ora>
		i++;						//segedvaltozo novelese
 742:	80 91 46 01 	lds	r24, 0x0146	; 0x800146 <__data_end>
 746:	8f 5f       	subi	r24, 0xFF	; 255
 748:	80 93 46 01 	sts	0x0146, r24	; 0x800146 <__data_end>
		orakijelzes();				//ido kijelzese
 74c:	60 de       	rcall	.-832    	; 0x40e <orakijelzes>
		if ( ora > 23)				// hibakezeles, ha ora nagyobb mint 23
 74e:	80 91 5a 01 	lds	r24, 0x015A	; 0x80015a <ora>
 752:	90 91 5b 01 	lds	r25, 0x015B	; 0x80015b <ora+0x1>
 756:	48 97       	sbiw	r24, 0x18	; 24
 758:	0c f4       	brge	.+2      	; 0x75c <orabeallitas+0x11c>
 75a:	65 c0       	rjmp	.+202    	; 0x826 <orabeallitas+0x1e6>
		{
			i=0;					// segedvaltozo nullazasa, hogy ujra bekerje az ora erteket
 75c:	10 92 46 01 	sts	0x0146, r1	; 0x800146 <__data_end>
			command(CLR_SCR);
 760:	81 e0       	ldi	r24, 0x01	; 1
 762:	da dc       	rcall	.-1612   	; 0x118 <command>
			command(HOME);
 764:	82 e0       	ldi	r24, 0x02	; 2
 766:	d8 dc       	rcall	.-1616   	; 0x118 <command>
			StringToLCD("Hibas bevitel");
 768:	83 e0       	ldi	r24, 0x03	; 3
 76a:	91 e0       	ldi	r25, 0x01	; 1
 76c:	97 dd       	rcall	.-1234   	; 0x29c <StringToLCD>
	#else
		//round up by default
		__ticks_dc = (uint32_t)(ceil(fabs(__tmp)));
	#endif

	__builtin_avr_delay_cycles(__ticks_dc);
 76e:	2f ef       	ldi	r18, 0xFF	; 255
 770:	8b e4       	ldi	r24, 0x4B	; 75
 772:	9d e1       	ldi	r25, 0x1D	; 29
 774:	21 50       	subi	r18, 0x01	; 1
 776:	80 40       	sbci	r24, 0x00	; 0
 778:	90 40       	sbci	r25, 0x00	; 0
 77a:	e1 f7       	brne	.-8      	; 0x774 <orabeallitas+0x134>
 77c:	00 c0       	rjmp	.+0      	; 0x77e <orabeallitas+0x13e>
 77e:	00 00       	nop
			_delay_ms(600);
			orakijelzes();
 780:	46 de       	rcall	.-884    	; 0x40e <orakijelzes>
 782:	51 c0       	rjmp	.+162    	; 0x826 <orabeallitas+0x1e6>
		}
	}else
	if (i ==2)						// perc tizes helyiertekenek bekerese
 784:	80 91 46 01 	lds	r24, 0x0146	; 0x800146 <__data_end>
 788:	82 30       	cpi	r24, 0x02	; 2
 78a:	d1 f4       	brne	.+52     	; 0x7c0 <orabeallitas+0x180>
	{
		perc = ertek*10;			// perc tizes helyiertekenek megadasa
 78c:	80 91 52 01 	lds	r24, 0x0152	; 0x800152 <ertek>
 790:	90 91 53 01 	lds	r25, 0x0153	; 0x800153 <ertek+0x1>
 794:	9c 01       	movw	r18, r24
 796:	22 0f       	add	r18, r18
 798:	33 1f       	adc	r19, r19
 79a:	88 0f       	add	r24, r24
 79c:	99 1f       	adc	r25, r25
 79e:	88 0f       	add	r24, r24
 7a0:	99 1f       	adc	r25, r25
 7a2:	88 0f       	add	r24, r24
 7a4:	99 1f       	adc	r25, r25
 7a6:	82 0f       	add	r24, r18
 7a8:	93 1f       	adc	r25, r19
 7aa:	90 93 59 01 	sts	0x0159, r25	; 0x800159 <perc+0x1>
 7ae:	80 93 58 01 	sts	0x0158, r24	; 0x800158 <perc>
		i++;						//segedvaltozo novelese
 7b2:	80 91 46 01 	lds	r24, 0x0146	; 0x800146 <__data_end>
 7b6:	8f 5f       	subi	r24, 0xFF	; 255
 7b8:	80 93 46 01 	sts	0x0146, r24	; 0x800146 <__data_end>
		orakijelzes();				//ido kijelzese
 7bc:	28 de       	rcall	.-944    	; 0x40e <orakijelzes>
 7be:	33 c0       	rjmp	.+102    	; 0x826 <orabeallitas+0x1e6>
	}else
	if (i==3)						// perc egyes helyiertekenek bekerese
 7c0:	80 91 46 01 	lds	r24, 0x0146	; 0x800146 <__data_end>
 7c4:	83 30       	cpi	r24, 0x03	; 3
 7c6:	79 f5       	brne	.+94     	; 0x826 <orabeallitas+0x1e6>
	{
		perc = perc+ertek;			// perc egyes helyiertekenek megadasa
 7c8:	20 91 58 01 	lds	r18, 0x0158	; 0x800158 <perc>
 7cc:	30 91 59 01 	lds	r19, 0x0159	; 0x800159 <perc+0x1>
 7d0:	80 91 52 01 	lds	r24, 0x0152	; 0x800152 <ertek>
 7d4:	90 91 53 01 	lds	r25, 0x0153	; 0x800153 <ertek+0x1>
 7d8:	82 0f       	add	r24, r18
 7da:	93 1f       	adc	r25, r19
 7dc:	90 93 59 01 	sts	0x0159, r25	; 0x800159 <perc+0x1>
 7e0:	80 93 58 01 	sts	0x0158, r24	; 0x800158 <perc>
		if (perc > 59)				//hibakezeles, ha perc nagyobb mint 59
 7e4:	80 91 58 01 	lds	r24, 0x0158	; 0x800158 <perc>
 7e8:	90 91 59 01 	lds	r25, 0x0159	; 0x800159 <perc+0x1>
 7ec:	cc 97       	sbiw	r24, 0x3c	; 60
 7ee:	ac f0       	brlt	.+42     	; 0x81a <orabeallitas+0x1da>
		{
			i=2;						// segedvaltozo 2-es ertek, hogy ujra bekerje a percet
 7f0:	82 e0       	ldi	r24, 0x02	; 2
 7f2:	80 93 46 01 	sts	0x0146, r24	; 0x800146 <__data_end>
			command(CLR_SCR);
 7f6:	81 e0       	ldi	r24, 0x01	; 1
 7f8:	8f dc       	rcall	.-1762   	; 0x118 <command>
			command(HOME);
 7fa:	82 e0       	ldi	r24, 0x02	; 2
 7fc:	8d dc       	rcall	.-1766   	; 0x118 <command>
			StringToLCD("Hibas bevitel");	//tajekoztatas
 7fe:	83 e0       	ldi	r24, 0x03	; 3
 800:	91 e0       	ldi	r25, 0x01	; 1
 802:	4c dd       	rcall	.-1384   	; 0x29c <StringToLCD>
 804:	2f ef       	ldi	r18, 0xFF	; 255
 806:	8b e4       	ldi	r24, 0x4B	; 75
 808:	9d e1       	ldi	r25, 0x1D	; 29
 80a:	21 50       	subi	r18, 0x01	; 1
 80c:	80 40       	sbci	r24, 0x00	; 0
 80e:	90 40       	sbci	r25, 0x00	; 0
 810:	e1 f7       	brne	.-8      	; 0x80a <orabeallitas+0x1ca>
 812:	00 c0       	rjmp	.+0      	; 0x814 <orabeallitas+0x1d4>
 814:	00 00       	nop
			_delay_ms(600);
			orakijelzes();
 816:	fb dd       	rcall	.-1034   	; 0x40e <orakijelzes>
 818:	06 c0       	rjmp	.+12     	; 0x826 <orabeallitas+0x1e6>
		}else
		{
			i=0;					//segedvaltozo nullazas
 81a:	10 92 46 01 	sts	0x0146, r1	; 0x800146 <__data_end>
			beall=0;				//uzemmod visszaallitva mukodesre
 81e:	10 92 47 01 	sts	0x0147, r1	; 0x800147 <beall>
			TCCR0=7;
 822:	87 e0       	ldi	r24, 0x07	; 7
 824:	83 bf       	out	0x33, r24	; 51
		}
		
	}
	orakijelzes();						//ido kijelzese
 826:	f3 cd       	rjmp	.-1050   	; 0x40e <orakijelzes>
 828:	08 95       	ret

0000082a <main>:
volatile int  sora =0,sperc =0,smp=0,smp1=0,szmp1=0,stop=0; 
volatile char UtoljaraLenyomottGomb='0', temp='N', felenged = 1,beall=0,i=0;
int main(void)
{
	
	HW_Init();
 82a:	d4 dd       	rcall	.-1112   	; 0x3d4 <HW_Init>
	init_lcd();       //lcd init
 82c:	b1 dc       	rcall	.-1694   	; 0x190 <init_lcd>
	
	command(HOME);						//tajekoztatas
 82e:	82 e0       	ldi	r24, 0x02	; 2
 830:	73 dc       	rcall	.-1818   	; 0x118 <command>
	StringToLCD("stopper indit:k1");
 832:	81 e1       	ldi	r24, 0x11	; 17
 834:	91 e0       	ldi	r25, 0x01	; 1
 836:	32 dd       	rcall	.-1436   	; 0x29c <StringToLCD>
	command(S_LINE_BEG);
 838:	80 ec       	ldi	r24, 0xC0	; 192
 83a:	6e dc       	rcall	.-1828   	; 0x118 <command>
	StringToLCD("stopper korido:k2");	
 83c:	82 e2       	ldi	r24, 0x22	; 34
 83e:	91 e0       	ldi	r25, 0x01	; 1
 840:	2d dd       	rcall	.-1446   	; 0x29c <StringToLCD>
	command(T_LINE_BEG);
 842:	80 e9       	ldi	r24, 0x90	; 144
 844:	69 dc       	rcall	.-1838   	; 0x118 <command>
	StringToLCD("stopper reset:k3");
 846:	84 e3       	ldi	r24, 0x34	; 52
 848:	91 e0       	ldi	r25, 0x01	; 1
 84a:	28 dd       	rcall	.-1456   	; 0x29c <StringToLCD>
 84c:	2f ef       	ldi	r18, 0xFF	; 255
 84e:	83 ed       	ldi	r24, 0xD3	; 211
 850:	90 e3       	ldi	r25, 0x30	; 48
 852:	21 50       	subi	r18, 0x01	; 1
 854:	80 40       	sbci	r24, 0x00	; 0
 856:	90 40       	sbci	r25, 0x00	; 0
 858:	e1 f7       	brne	.-8      	; 0x852 <main+0x28>
 85a:	00 c0       	rjmp	.+0      	; 0x85c <main+0x32>
 85c:	00 00       	nop
	_delay_ms(1000);
	command(CLR_SCR);
 85e:	81 e0       	ldi	r24, 0x01	; 1
 860:	5b dc       	rcall	.-1866   	; 0x118 <command>
	TIMSK=65;							//tccr0=1, tccr2=64
 862:	81 e4       	ldi	r24, 0x41	; 65
 864:	87 bf       	out	0x37, r24	; 55
	sei();								//globális megszakitások engedélyezése
 866:	78 94       	sei
	orakijelzes();
 868:	d2 dd       	rcall	.-1116   	; 0x40e <orakijelzes>
	orabeallitas();
 86a:	ea de       	rcall	.-556    	; 0x640 <orabeallitas>
	while (1)
	{
		switch(PING)				// nyomogombsor kiertekeles
 86c:	03 e6       	ldi	r16, 0x63	; 99
 86e:	10 e0       	ldi	r17, 0x00	; 0
		{
			case 2:beall=2;break;	//stopper inditas
			case 4:beall=3;break;	//stopper körido
 870:	d3 e0       	ldi	r29, 0x03	; 3
			case 8:beall=4;break;	//stopper reset
 872:	68 94       	set
 874:	ff 24       	eor	r15, r15
 876:	f2 f8       	bld	r15, 2
	orabeallitas();
	while (1)
	{
		switch(PING)				// nyomogombsor kiertekeles
		{
			case 2:beall=2;break;	//stopper inditas
 878:	c2 e0       	ldi	r28, 0x02	; 2
			case 4:beall=3;break;	//stopper körido
			case 8:beall=4;break;	//stopper reset
			default:break;	
		}
		if (beall==3)				// korido, idozito a kijelzeshez, 7seg elinditasa, ertekek masolasa
		{TCCR2=2;PORTA=0xff; szmp1=szmp;smp1=smp;beall=2;}
 87a:	ee 24       	eor	r14, r14
 87c:	ea 94       	dec	r14
		if(temp!='N'){ UtoljaraLenyomottGomb=temp;felenged = 4;continue;}
		if(felenged == 4) {felenged = 5; orabeallitas();}
		
		temp = BillMatrixRead(4);
		if(temp!='N'){ UtoljaraLenyomottGomb=temp;felenged = 6;continue;}
		if(felenged == 6) {felenged = 7; orabeallitas();}
 87e:	0f 2e       	mov	r0, r31
 880:	f7 e0       	ldi	r31, 0x07	; 7
 882:	bf 2e       	mov	r11, r31
 884:	f0 2d       	mov	r31, r0
		temp = BillMatrixRead(3);
		if(temp!='N'){ UtoljaraLenyomottGomb=temp;felenged = 4;continue;}
		if(felenged == 4) {felenged = 5; orabeallitas();}
		
		temp = BillMatrixRead(4);
		if(temp!='N'){ UtoljaraLenyomottGomb=temp;felenged = 6;continue;}
 886:	0f 2e       	mov	r0, r31
 888:	f6 e0       	ldi	r31, 0x06	; 6
 88a:	df 2e       	mov	r13, r31
 88c:	f0 2d       	mov	r31, r0
		if(temp!='N'){ UtoljaraLenyomottGomb=temp;felenged = 2;continue;}
		if(felenged == 2) {felenged = 3; orabeallitas();}
		
		temp = BillMatrixRead(3);
		if(temp!='N'){ UtoljaraLenyomottGomb=temp;felenged = 4;continue;}
		if(felenged == 4) {felenged = 5; orabeallitas();}
 88e:	0f 2e       	mov	r0, r31
 890:	f5 e0       	ldi	r31, 0x05	; 5
 892:	cf 2e       	mov	r12, r31
 894:	f0 2d       	mov	r31, r0
	sei();								//globális megszakitások engedélyezése
	orakijelzes();
	orabeallitas();
	while (1)
	{
		switch(PING)				// nyomogombsor kiertekeles
 896:	f8 01       	movw	r30, r16
 898:	90 81       	ld	r25, Z
 89a:	94 30       	cpi	r25, 0x04	; 4
 89c:	39 f0       	breq	.+14     	; 0x8ac <main+0x82>
 89e:	98 30       	cpi	r25, 0x08	; 8
 8a0:	41 f0       	breq	.+16     	; 0x8b2 <main+0x88>
 8a2:	92 30       	cpi	r25, 0x02	; 2
 8a4:	41 f4       	brne	.+16     	; 0x8b6 <main+0x8c>
		{
			case 2:beall=2;break;	//stopper inditas
 8a6:	c0 93 47 01 	sts	0x0147, r28	; 0x800147 <beall>
 8aa:	05 c0       	rjmp	.+10     	; 0x8b6 <main+0x8c>
			case 4:beall=3;break;	//stopper körido
 8ac:	d0 93 47 01 	sts	0x0147, r29	; 0x800147 <beall>
 8b0:	02 c0       	rjmp	.+4      	; 0x8b6 <main+0x8c>
			case 8:beall=4;break;	//stopper reset
 8b2:	f0 92 47 01 	sts	0x0147, r15	; 0x800147 <beall>
			default:break;	
		}
		if (beall==3)				// korido, idozito a kijelzeshez, 7seg elinditasa, ertekek masolasa
 8b6:	90 91 47 01 	lds	r25, 0x0147	; 0x800147 <beall>
 8ba:	93 30       	cpi	r25, 0x03	; 3
 8bc:	a1 f4       	brne	.+40     	; 0x8e6 <main+0xbc>
		{TCCR2=2;PORTA=0xff; szmp1=szmp;smp1=smp;beall=2;}
 8be:	c5 bd       	out	0x25, r28	; 37
 8c0:	eb ba       	out	0x1b, r14	; 27
 8c2:	80 91 54 01 	lds	r24, 0x0154	; 0x800154 <szmp>
 8c6:	90 91 55 01 	lds	r25, 0x0155	; 0x800155 <szmp+0x1>
 8ca:	90 93 49 01 	sts	0x0149, r25	; 0x800149 <szmp1+0x1>
 8ce:	80 93 48 01 	sts	0x0148, r24	; 0x800148 <szmp1>
 8d2:	80 91 4c 01 	lds	r24, 0x014C	; 0x80014c <smp>
 8d6:	90 91 4d 01 	lds	r25, 0x014D	; 0x80014d <smp+0x1>
 8da:	90 93 4b 01 	sts	0x014B, r25	; 0x80014b <smp1+0x1>
 8de:	80 93 4a 01 	sts	0x014A, r24	; 0x80014a <smp1>
 8e2:	c0 93 47 01 	sts	0x0147, r28	; 0x800147 <beall>


				
		if (beall ==4)				//stopper reset,7seg. leallitas, stopper nullazas
 8e6:	90 91 47 01 	lds	r25, 0x0147	; 0x800147 <beall>
 8ea:	94 30       	cpi	r25, 0x04	; 4
 8ec:	91 f4       	brne	.+36     	; 0x912 <main+0xe8>
		{TCCR2=0; PORTA=0x00;sora=0;sperc=0;smp=0;szmp=0;}
 8ee:	15 bc       	out	0x25, r1	; 37
 8f0:	1b ba       	out	0x1b, r1	; 27
 8f2:	10 92 51 01 	sts	0x0151, r1	; 0x800151 <sora+0x1>
 8f6:	10 92 50 01 	sts	0x0150, r1	; 0x800150 <sora>
 8fa:	10 92 4f 01 	sts	0x014F, r1	; 0x80014f <sperc+0x1>
 8fe:	10 92 4e 01 	sts	0x014E, r1	; 0x80014e <sperc>
 902:	10 92 4d 01 	sts	0x014D, r1	; 0x80014d <smp+0x1>
 906:	10 92 4c 01 	sts	0x014C, r1	; 0x80014c <smp>
 90a:	10 92 55 01 	sts	0x0155, r1	; 0x800155 <szmp+0x1>
 90e:	10 92 54 01 	sts	0x0154, r1	; 0x800154 <szmp>
			
			
		temp = BillMatrixRead(1); 	//temp = 1         feleng: temp == 'N'
 912:	81 e0       	ldi	r24, 0x01	; 1
 914:	d1 dc       	rcall	.-1630   	; 0x2b8 <BillMatrixRead>
 916:	80 93 01 01 	sts	0x0101, r24	; 0x800101 <temp>
		if(temp!='N'){ UtoljaraLenyomottGomb=temp;felenged = 0;continue;} //utgomb=1
 91a:	90 91 01 01 	lds	r25, 0x0101	; 0x800101 <temp>
 91e:	9e 34       	cpi	r25, 0x4E	; 78
 920:	39 f0       	breq	.+14     	; 0x930 <main+0x106>
 922:	90 91 01 01 	lds	r25, 0x0101	; 0x800101 <temp>
 926:	90 93 02 01 	sts	0x0102, r25	; 0x800102 <UtoljaraLenyomottGomb>
 92a:	10 92 00 01 	sts	0x0100, r1	; 0x800100 <__data_start>
 92e:	b3 cf       	rjmp	.-154    	; 0x896 <main+0x6c>
		if(felenged == 0) {felenged = 1; orabeallitas();}
 930:	90 91 00 01 	lds	r25, 0x0100	; 0x800100 <__data_start>
 934:	91 11       	cpse	r25, r1
 936:	04 c0       	rjmp	.+8      	; 0x940 <main+0x116>
 938:	81 e0       	ldi	r24, 0x01	; 1
 93a:	80 93 00 01 	sts	0x0100, r24	; 0x800100 <__data_start>
 93e:	80 de       	rcall	.-768    	; 0x640 <orabeallitas>
		
		temp = BillMatrixRead(2);
 940:	8c 2f       	mov	r24, r28
 942:	ba dc       	rcall	.-1676   	; 0x2b8 <BillMatrixRead>
 944:	80 93 01 01 	sts	0x0101, r24	; 0x800101 <temp>
		if(temp!='N'){ UtoljaraLenyomottGomb=temp;felenged = 2;continue;}
 948:	90 91 01 01 	lds	r25, 0x0101	; 0x800101 <temp>
 94c:	9e 34       	cpi	r25, 0x4E	; 78
 94e:	39 f0       	breq	.+14     	; 0x95e <main+0x134>
 950:	80 91 01 01 	lds	r24, 0x0101	; 0x800101 <temp>
 954:	80 93 02 01 	sts	0x0102, r24	; 0x800102 <UtoljaraLenyomottGomb>
 958:	c0 93 00 01 	sts	0x0100, r28	; 0x800100 <__data_start>
 95c:	9c cf       	rjmp	.-200    	; 0x896 <main+0x6c>
		if(felenged == 2) {felenged = 3; orabeallitas();}
 95e:	80 91 00 01 	lds	r24, 0x0100	; 0x800100 <__data_start>
 962:	82 30       	cpi	r24, 0x02	; 2
 964:	19 f4       	brne	.+6      	; 0x96c <main+0x142>
 966:	d0 93 00 01 	sts	0x0100, r29	; 0x800100 <__data_start>
 96a:	6a de       	rcall	.-812    	; 0x640 <orabeallitas>
		
		temp = BillMatrixRead(3);
 96c:	8d 2f       	mov	r24, r29
 96e:	a4 dc       	rcall	.-1720   	; 0x2b8 <BillMatrixRead>
 970:	80 93 01 01 	sts	0x0101, r24	; 0x800101 <temp>
		if(temp!='N'){ UtoljaraLenyomottGomb=temp;felenged = 4;continue;}
 974:	80 91 01 01 	lds	r24, 0x0101	; 0x800101 <temp>
 978:	8e 34       	cpi	r24, 0x4E	; 78
 97a:	39 f0       	breq	.+14     	; 0x98a <main+0x160>
 97c:	80 91 01 01 	lds	r24, 0x0101	; 0x800101 <temp>
 980:	80 93 02 01 	sts	0x0102, r24	; 0x800102 <UtoljaraLenyomottGomb>
 984:	f0 92 00 01 	sts	0x0100, r15	; 0x800100 <__data_start>
 988:	86 cf       	rjmp	.-244    	; 0x896 <main+0x6c>
		if(felenged == 4) {felenged = 5; orabeallitas();}
 98a:	80 91 00 01 	lds	r24, 0x0100	; 0x800100 <__data_start>
 98e:	84 30       	cpi	r24, 0x04	; 4
 990:	19 f4       	brne	.+6      	; 0x998 <main+0x16e>
 992:	c0 92 00 01 	sts	0x0100, r12	; 0x800100 <__data_start>
 996:	54 de       	rcall	.-856    	; 0x640 <orabeallitas>
		
		temp = BillMatrixRead(4);
 998:	8f 2d       	mov	r24, r15
 99a:	8e dc       	rcall	.-1764   	; 0x2b8 <BillMatrixRead>
 99c:	80 93 01 01 	sts	0x0101, r24	; 0x800101 <temp>
		if(temp!='N'){ UtoljaraLenyomottGomb=temp;felenged = 6;continue;}
 9a0:	80 91 01 01 	lds	r24, 0x0101	; 0x800101 <temp>
 9a4:	8e 34       	cpi	r24, 0x4E	; 78
 9a6:	39 f0       	breq	.+14     	; 0x9b6 <main+0x18c>
 9a8:	80 91 01 01 	lds	r24, 0x0101	; 0x800101 <temp>
 9ac:	80 93 02 01 	sts	0x0102, r24	; 0x800102 <UtoljaraLenyomottGomb>
 9b0:	d0 92 00 01 	sts	0x0100, r13	; 0x800100 <__data_start>
 9b4:	70 cf       	rjmp	.-288    	; 0x896 <main+0x6c>
		if(felenged == 6) {felenged = 7; orabeallitas();}
 9b6:	80 91 00 01 	lds	r24, 0x0100	; 0x800100 <__data_start>
 9ba:	86 30       	cpi	r24, 0x06	; 6
 9bc:	09 f0       	breq	.+2      	; 0x9c0 <main+0x196>
 9be:	6b cf       	rjmp	.-298    	; 0x896 <main+0x6c>
 9c0:	b0 92 00 01 	sts	0x0100, r11	; 0x800100 <__data_start>
 9c4:	3d de       	rcall	.-902    	; 0x640 <orabeallitas>
 9c6:	67 cf       	rjmp	.-306    	; 0x896 <main+0x6c>

000009c8 <__vector_16>:
	}
	orakijelzes();						//ido kijelzese
}
/******************** INTERRUPT SERVICE ROUTINES *****************************/
ISR(TIMER0_OVF_vect)
{	
 9c8:	1f 92       	push	r1
 9ca:	0f 92       	push	r0
 9cc:	0f b6       	in	r0, 0x3f	; 63
 9ce:	0f 92       	push	r0
 9d0:	11 24       	eor	r1, r1
 9d2:	0b b6       	in	r0, 0x3b	; 59
 9d4:	0f 92       	push	r0
 9d6:	2f 93       	push	r18
 9d8:	3f 93       	push	r19
 9da:	4f 93       	push	r20
 9dc:	5f 93       	push	r21
 9de:	6f 93       	push	r22
 9e0:	7f 93       	push	r23
 9e2:	8f 93       	push	r24
 9e4:	9f 93       	push	r25
 9e6:	af 93       	push	r26
 9e8:	bf 93       	push	r27
 9ea:	ef 93       	push	r30
 9ec:	ff 93       	push	r31
		Counter++;						//szamlalo noveles
 9ee:	80 91 5c 01 	lds	r24, 0x015C	; 0x80015c <Counter>
 9f2:	90 91 5d 01 	lds	r25, 0x015D	; 0x80015d <Counter+0x1>
 9f6:	01 96       	adiw	r24, 0x01	; 1
 9f8:	90 93 5d 01 	sts	0x015D, r25	; 0x80015d <Counter+0x1>
 9fc:	80 93 5c 01 	sts	0x015C, r24	; 0x80015c <Counter>
		if (((Counter%6)==0) && (beall ==2 || beall ==3)) //ha szamlalo maradék nélkül osztható 6al, és el van inditva a stopper 
 a00:	80 91 5c 01 	lds	r24, 0x015C	; 0x80015c <Counter>
 a04:	90 91 5d 01 	lds	r25, 0x015D	; 0x80015d <Counter+0x1>
 a08:	66 e0       	ldi	r22, 0x06	; 6
 a0a:	70 e0       	ldi	r23, 0x00	; 0
 a0c:	67 d0       	rcall	.+206    	; 0xadc <__divmodhi4>
 a0e:	89 2b       	or	r24, r25
 a10:	49 f4       	brne	.+18     	; 0xa24 <__vector_16+0x5c>
 a12:	80 91 47 01 	lds	r24, 0x0147	; 0x800147 <beall>
 a16:	82 30       	cpi	r24, 0x02	; 2
 a18:	21 f0       	breq	.+8      	; 0xa22 <__vector_16+0x5a>
 a1a:	80 91 47 01 	lds	r24, 0x0147	; 0x800147 <beall>
 a1e:	83 30       	cpi	r24, 0x03	; 3
 a20:	09 f4       	brne	.+2      	; 0xa24 <__vector_16+0x5c>
		{	
			stopper();									//stopper léptetés 0.1 mpenként
 a22:	bf dd       	rcall	.-1154   	; 0x5a2 <stopper>
		}
		if (Counter>=61)								//ha letelt 1 mp
 a24:	80 91 5c 01 	lds	r24, 0x015C	; 0x80015c <Counter>
 a28:	90 91 5d 01 	lds	r25, 0x015D	; 0x80015d <Counter+0x1>
 a2c:	cd 97       	sbiw	r24, 0x3d	; 61
 a2e:	2c f0       	brlt	.+10     	; 0xa3a <__vector_16+0x72>
		{
			Counter=0;									//szamlalo nullazas
 a30:	10 92 5d 01 	sts	0x015D, r1	; 0x80015d <Counter+0x1>
 a34:	10 92 5c 01 	sts	0x015C, r1	; 0x80015c <Counter>
			oramu();									//oramu leptetes
 a38:	79 dd       	rcall	.-1294   	; 0x52c <oramu>
		}
	
}
 a3a:	ff 91       	pop	r31
 a3c:	ef 91       	pop	r30
 a3e:	bf 91       	pop	r27
 a40:	af 91       	pop	r26
 a42:	9f 91       	pop	r25
 a44:	8f 91       	pop	r24
 a46:	7f 91       	pop	r23
 a48:	6f 91       	pop	r22
 a4a:	5f 91       	pop	r21
 a4c:	4f 91       	pop	r20
 a4e:	3f 91       	pop	r19
 a50:	2f 91       	pop	r18
 a52:	0f 90       	pop	r0
 a54:	0b be       	out	0x3b, r0	; 59
 a56:	0f 90       	pop	r0
 a58:	0f be       	out	0x3f, r0	; 63
 a5a:	0f 90       	pop	r0
 a5c:	1f 90       	pop	r1
 a5e:	18 95       	reti

00000a60 <__vector_10>:

ISR(TIMER2_OVF_vect)									// a 7 seg. kijelzo meghajtasa
{	
 a60:	1f 92       	push	r1
 a62:	0f 92       	push	r0
 a64:	0f b6       	in	r0, 0x3f	; 63
 a66:	0f 92       	push	r0
 a68:	11 24       	eor	r1, r1
 a6a:	2f 93       	push	r18
 a6c:	3f 93       	push	r19
 a6e:	5f 93       	push	r21
 a70:	6f 93       	push	r22
 a72:	7f 93       	push	r23
 a74:	8f 93       	push	r24
 a76:	9f 93       	push	r25
 a78:	af 93       	push	r26
 a7a:	bf 93       	push	r27
	PORTA=128+48+(smp1/10);
 a7c:	80 91 4a 01 	lds	r24, 0x014A	; 0x80014a <smp1>
 a80:	90 91 4b 01 	lds	r25, 0x014B	; 0x80014b <smp1+0x1>
 a84:	2a e0       	ldi	r18, 0x0A	; 10
 a86:	30 e0       	ldi	r19, 0x00	; 0
 a88:	b9 01       	movw	r22, r18
 a8a:	28 d0       	rcall	.+80     	; 0xadc <__divmodhi4>
 a8c:	60 55       	subi	r22, 0x50	; 80
 a8e:	6b bb       	out	0x1b, r22	; 27
	PORTA=128+32+(smp1%10);
 a90:	80 91 4a 01 	lds	r24, 0x014A	; 0x80014a <smp1>
 a94:	90 91 4b 01 	lds	r25, 0x014B	; 0x80014b <smp1+0x1>
 a98:	b9 01       	movw	r22, r18
 a9a:	20 d0       	rcall	.+64     	; 0xadc <__divmodhi4>
 a9c:	80 56       	subi	r24, 0x60	; 96
 a9e:	8b bb       	out	0x1b, r24	; 27
	PORTA=128+16+(szmp1/10);
 aa0:	80 91 48 01 	lds	r24, 0x0148	; 0x800148 <szmp1>
 aa4:	90 91 49 01 	lds	r25, 0x0149	; 0x800149 <szmp1+0x1>
 aa8:	b9 01       	movw	r22, r18
 aaa:	18 d0       	rcall	.+48     	; 0xadc <__divmodhi4>
 aac:	60 57       	subi	r22, 0x70	; 112
 aae:	6b bb       	out	0x1b, r22	; 27
	PORTA=128+(szmp1%10);
 ab0:	80 91 48 01 	lds	r24, 0x0148	; 0x800148 <szmp1>
 ab4:	90 91 49 01 	lds	r25, 0x0149	; 0x800149 <szmp1+0x1>
 ab8:	b9 01       	movw	r22, r18
 aba:	10 d0       	rcall	.+32     	; 0xadc <__divmodhi4>
 abc:	80 58       	subi	r24, 0x80	; 128
 abe:	8b bb       	out	0x1b, r24	; 27
}
 ac0:	bf 91       	pop	r27
 ac2:	af 91       	pop	r26
 ac4:	9f 91       	pop	r25
 ac6:	8f 91       	pop	r24
 ac8:	7f 91       	pop	r23
 aca:	6f 91       	pop	r22
 acc:	5f 91       	pop	r21
 ace:	3f 91       	pop	r19
 ad0:	2f 91       	pop	r18
 ad2:	0f 90       	pop	r0
 ad4:	0f be       	out	0x3f, r0	; 63
 ad6:	0f 90       	pop	r0
 ad8:	1f 90       	pop	r1
 ada:	18 95       	reti

00000adc <__divmodhi4>:
 adc:	97 fb       	bst	r25, 7
 ade:	07 2e       	mov	r0, r23
 ae0:	16 f4       	brtc	.+4      	; 0xae6 <__divmodhi4+0xa>
 ae2:	00 94       	com	r0
 ae4:	06 d0       	rcall	.+12     	; 0xaf2 <__divmodhi4_neg1>
 ae6:	77 fd       	sbrc	r23, 7
 ae8:	08 d0       	rcall	.+16     	; 0xafa <__divmodhi4_neg2>
 aea:	14 d0       	rcall	.+40     	; 0xb14 <__udivmodhi4>
 aec:	07 fc       	sbrc	r0, 7
 aee:	05 d0       	rcall	.+10     	; 0xafa <__divmodhi4_neg2>
 af0:	3e f4       	brtc	.+14     	; 0xb00 <__divmodhi4_exit>

00000af2 <__divmodhi4_neg1>:
 af2:	90 95       	com	r25
 af4:	81 95       	neg	r24
 af6:	9f 4f       	sbci	r25, 0xFF	; 255
 af8:	08 95       	ret

00000afa <__divmodhi4_neg2>:
 afa:	70 95       	com	r23
 afc:	61 95       	neg	r22
 afe:	7f 4f       	sbci	r23, 0xFF	; 255

00000b00 <__divmodhi4_exit>:
 b00:	08 95       	ret

00000b02 <__tablejump2__>:
 b02:	ee 0f       	add	r30, r30
 b04:	ff 1f       	adc	r31, r31
 b06:	00 24       	eor	r0, r0
 b08:	00 1c       	adc	r0, r0
 b0a:	0b be       	out	0x3b, r0	; 59
 b0c:	07 90       	elpm	r0, Z+
 b0e:	f6 91       	elpm	r31, Z
 b10:	e0 2d       	mov	r30, r0
 b12:	09 94       	ijmp

00000b14 <__udivmodhi4>:
 b14:	aa 1b       	sub	r26, r26
 b16:	bb 1b       	sub	r27, r27
 b18:	51 e1       	ldi	r21, 0x11	; 17
 b1a:	07 c0       	rjmp	.+14     	; 0xb2a <__udivmodhi4_ep>

00000b1c <__udivmodhi4_loop>:
 b1c:	aa 1f       	adc	r26, r26
 b1e:	bb 1f       	adc	r27, r27
 b20:	a6 17       	cp	r26, r22
 b22:	b7 07       	cpc	r27, r23
 b24:	10 f0       	brcs	.+4      	; 0xb2a <__udivmodhi4_ep>
 b26:	a6 1b       	sub	r26, r22
 b28:	b7 0b       	sbc	r27, r23

00000b2a <__udivmodhi4_ep>:
 b2a:	88 1f       	adc	r24, r24
 b2c:	99 1f       	adc	r25, r25
 b2e:	5a 95       	dec	r21
 b30:	a9 f7       	brne	.-22     	; 0xb1c <__udivmodhi4_loop>
 b32:	80 95       	com	r24
 b34:	90 95       	com	r25
 b36:	bc 01       	movw	r22, r24
 b38:	cd 01       	movw	r24, r26
 b3a:	08 95       	ret

00000b3c <_exit>:
 b3c:	f8 94       	cli

00000b3e <__stop_program>:
 b3e:	ff cf       	rjmp	.-2      	; 0xb3e <__stop_program>
